target datalayout = "e-m:e-p270:32:32-p271:32:32-p272:64:64-i64:64-i128:128-f80:128-n8:16:32:64-S128"
target triple = "x86_64-pc-linux-gnu"

%struct.tm = type { i32, i32, i32, i32, i32, i32, i32, i32, i32, i64, ptr }

@__const.Convert.DaysInMonth = private unnamed_addr constant [12 x i8] c"\1F\00\1F\1E\1F\1E\1F\1F\1E\1F\1E\1F", align 1

; Function Attrs: nounwind uwtable
define internal i64 @Convert(i64 noundef %0, i64 noundef %1, i64 noundef %2, i64 noundef %3, i64 noundef %4, i64 noundef %5, i64 noundef %6, i32 noundef %7) #0 {
  %9 = alloca i64, align 8
  %10 = alloca i64, align 8
  %11 = alloca i64, align 8
  %12 = alloca i64, align 8
  %13 = alloca i64, align 8
  %14 = alloca i64, align 8
  %15 = alloca i64, align 8
  %16 = alloca i64, align 8
  %17 = alloca i32, align 4
  %18 = alloca [12 x i8], align 1
  %19 = alloca i64, align 8
  %20 = alloca i32, align 4
  %21 = alloca ptr, align 8
  %22 = alloca %struct.tm, align 8
  %23 = alloca i32, align 4
  store i64 %0, ptr %10, align 8, !tbaa !4
  store i64 %1, ptr %11, align 8, !tbaa !4
  store i64 %2, ptr %12, align 8, !tbaa !4
  store i64 %3, ptr %13, align 8, !tbaa !4
  store i64 %4, ptr %14, align 8, !tbaa !4
  store i64 %5, ptr %15, align 8, !tbaa !4
  store i64 %6, ptr %16, align 8, !tbaa !4
  store i32 %7, ptr %17, align 4, !tbaa !31
  call void @llvm.lifetime.start.p0(i64 12, ptr %18) #7
  call void @llvm.memcpy.p0.p0.i64(ptr align 1 %18, ptr align 1 @__const.Convert.DaysInMonth, i64 12, i1 false)
  call void @llvm.lifetime.start.p0(i64 8, ptr %19) #7
  call void @llvm.lifetime.start.p0(i64 4, ptr %20) #7
  call void @llvm.lifetime.start.p0(i64 8, ptr %21) #7
  call void @llvm.lifetime.start.p0(i64 56, ptr %22) #7
  %24 = load i64, ptr %12, align 8, !tbaa !4
  %25 = icmp slt i64 %24, 69
  br i1 %25, label %26, label %29

26:                                               ; preds = %8
  %27 = load i64, ptr %12, align 8, !tbaa !4
  %28 = add nsw i64 %27, 2000
  store i64 %28, ptr %12, align 8, !tbaa !4
  br label %36

29:                                               ; preds = %8
  %30 = load i64, ptr %12, align 8, !tbaa !4
  %31 = icmp slt i64 %30, 100
  br i1 %31, label %32, label %35

32:                                               ; preds = %29
  %33 = load i64, ptr %12, align 8, !tbaa !4
  %34 = add nsw i64 %33, 1900
  store i64 %34, ptr %12, align 8, !tbaa !4
  br label %35

35:                                               ; preds = %32, %29
  br label %36

36:                                               ; preds = %35, %26
  %37 = load i64, ptr %12, align 8, !tbaa !4
  %38 = srem i64 %37, 4
  %39 = icmp eq i64 %38, 0
  br i1 %39, label %40, label %50

40:                                               ; preds = %36
  %41 = load i64, ptr %12, align 8, !tbaa !4
  %42 = srem i64 %41, 100
  %43 = icmp ne i64 %42, 0
  br i1 %43, label %48, label %44

44:                                               ; preds = %40
  %45 = load i64, ptr %12, align 8, !tbaa !4
  %46 = srem i64 %45, 400
  %47 = icmp eq i64 %46, 0
  br label %48

48:                                               ; preds = %44, %40
  %49 = phi i1 [ true, %40 ], [ %47, %44 ]
  br label %50

50:                                               ; preds = %48, %36
  %51 = phi i1 [ false, %36 ], [ %49, %48 ]
  %52 = select i1 %51, i32 29, i32 28
  %53 = trunc i32 %52 to i8
  %54 = getelementptr inbounds [12 x i8], ptr %18, i64 0, i64 1
  store i8 %53, ptr %54, align 1, !tbaa !61
  %55 = load i64, ptr %12, align 8, !tbaa !4
  %56 = icmp slt i64 %55, 1970
  br i1 %56, label %97, label %57

57:                                               ; preds = %50
  %58 = load i64, ptr %12, align 8, !tbaa !4
  %59 = icmp sge i64 %58, 2038
  br i1 %59, label %97, label %60

60:                                               ; preds = %57
  %61 = load i64, ptr %10, align 8, !tbaa !4
  %62 = icmp slt i64 %61, 1
  br i1 %62, label %97, label %63

63:                                               ; preds = %60
  %64 = load i64, ptr %10, align 8, !tbaa !4
  %65 = icmp sgt i64 %64, 12
  br i1 %65, label %97, label %66

66:                                               ; preds = %63
  %67 = load i64, ptr %11, align 8, !tbaa !4
  %68 = icmp slt i64 %67, 1
  br i1 %68, label %97, label %69

69:                                               ; preds = %66
  %70 = load i64, ptr %11, align 8, !tbaa !4
  %71 = load i64, ptr %10, align 8, !tbaa !4
  %72 = add nsw i64 %71, -1
  store i64 %72, ptr %10, align 8, !tbaa !4
  %73 = trunc i64 %72 to i32
  %74 = sext i32 %73 to i64
  %75 = getelementptr inbounds [12 x i8], ptr %18, i64 0, i64 %74
  %76 = load i8, ptr %75, align 1, !tbaa !61
  %77 = sext i8 %76 to i64
  %78 = icmp sgt i64 %70, %77
  br i1 %78, label %97, label %79

79:                                               ; preds = %69
  %80 = load i64, ptr %13, align 8, !tbaa !4
  %81 = icmp slt i64 %80, 0
  br i1 %81, label %97, label %82

82:                                               ; preds = %79
  %83 = load i64, ptr %13, align 8, !tbaa !4
  %84 = icmp sgt i64 %83, 23
  br i1 %84, label %97, label %85

85:                                               ; preds = %82
  %86 = load i64, ptr %14, align 8, !tbaa !4
  %87 = icmp slt i64 %86, 0
  br i1 %87, label %97, label %88

88:                                               ; preds = %85
  %89 = load i64, ptr %14, align 8, !tbaa !4
  %90 = icmp sgt i64 %89, 59
  br i1 %90, label %97, label %91

91:                                               ; preds = %88
  %92 = load i64, ptr %15, align 8, !tbaa !4
  %93 = icmp slt i64 %92, 0
  br i1 %93, label %97, label %94

94:                                               ; preds = %91
  %95 = load i64, ptr %15, align 8, !tbaa !4
  %96 = icmp sgt i64 %95, 59
  br i1 %96, label %97, label %98

97:                                               ; preds = %94, %91, %88, %85, %82, %79, %69, %66, %63, %60, %57, %50
  store i64 -1, ptr %9, align 8
  store i32 1, ptr %23, align 4
  br label %166

98:                                               ; preds = %94
  %99 = load i64, ptr %11, align 8, !tbaa !4
  %100 = sub nsw i64 %99, 1
  store i64 %100, ptr %19, align 8, !tbaa !4
  store i32 0, ptr %20, align 4, !tbaa !31
  br label %101

101:                                              ; preds = %114, %98
  %102 = load i32, ptr %20, align 4, !tbaa !31
  %103 = sext i32 %102 to i64
  %104 = load i64, ptr %10, align 8, !tbaa !4
  %105 = icmp slt i64 %103, %104
  br i1 %105, label %106, label %117

106:                                              ; preds = %101
  %107 = load i32, ptr %20, align 4, !tbaa !31
  %108 = sext i32 %107 to i64
  %109 = getelementptr inbounds [12 x i8], ptr %18, i64 0, i64 %108
  %110 = load i8, ptr %109, align 1, !tbaa !61
  %111 = sext i8 %110 to i64
  %112 = load i64, ptr %19, align 8, !tbaa !4
  %113 = add nsw i64 %112, %111
  store i64 %113, ptr %19, align 8, !tbaa !4
  br label %114

114:                                              ; preds = %106
  %115 = load i32, ptr %20, align 4, !tbaa !31
  %116 = add nsw i32 %115, 1
  store i32 %116, ptr %20, align 4, !tbaa !31
  br label %101, !llvm.loop !79

117:                                              ; preds = %101
  store i32 1970, ptr %20, align 4, !tbaa !31
  br label %118

118:                                              ; preds = %132, %117
  %119 = load i32, ptr %20, align 4, !tbaa !31
  %120 = sext i32 %119 to i64
  %121 = load i64, ptr %12, align 8, !tbaa !4
  %122 = icmp slt i64 %120, %121
  br i1 %122, label %123, label %135

123:                                              ; preds = %118
  %124 = load i32, ptr %20, align 4, !tbaa !31
  %125 = srem i32 %124, 4
  %126 = icmp eq i32 %125, 0
  %127 = zext i1 %126 to i32
  %128 = add nsw i32 365, %127
  %129 = sext i32 %128 to i64
  %130 = load i64, ptr %19, align 8, !tbaa !4
  %131 = add nsw i64 %130, %129
  store i64 %131, ptr %19, align 8, !tbaa !4
  br label %132

132:                                              ; preds = %123
  %133 = load i32, ptr %20, align 4, !tbaa !31
  %134 = add nsw i32 %133, 1
  store i32 %134, ptr %20, align 4, !tbaa !31
  br label %118, !llvm.loop !80

135:                                              ; preds = %118
  %136 = load i64, ptr %19, align 8, !tbaa !4
  %137 = mul nsw i64 %136, 86400
  store i64 %137, ptr %19, align 8, !tbaa !4
  %138 = load i64, ptr %16, align 8, !tbaa !4
  %139 = load i64, ptr %19, align 8, !tbaa !4
  %140 = add nsw i64 %139, %138
  store i64 %140, ptr %19, align 8, !tbaa !4
  %141 = load i64, ptr %13, align 8, !tbaa !4
  %142 = mul nsw i64 %141, 3600
  %143 = load i64, ptr %14, align 8, !tbaa !4
  %144 = mul nsw i64 %143, 60
  %145 = add nsw i64 %142, %144
  %146 = load i64, ptr %15, align 8, !tbaa !4
  %147 = add nsw i64 %145, %146
  %148 = load i64, ptr %19, align 8, !tbaa !4
  %149 = add nsw i64 %148, %147
  store i64 %149, ptr %19, align 8, !tbaa !4
  %150 = call ptr @localtime_r(ptr noundef %19, ptr noundef %22) #7
  store ptr %150, ptr %21, align 8, !tbaa !13
  %151 = load i32, ptr %17, align 4, !tbaa !31
  %152 = icmp eq i32 %151, 0
  br i1 %152, label %161, label %153

153:                                              ; preds = %135
  %154 = load i32, ptr %17, align 4, !tbaa !31
  %155 = icmp eq i32 %154, 2
  br i1 %155, label %156, label %164

156:                                              ; preds = %153
  %157 = load ptr, ptr %21, align 8, !tbaa !13
  %158 = getelementptr inbounds nuw %struct.tm, ptr %157, i32 0, i32 8
  %159 = load i32, ptr %158, align 8, !tbaa !15
  %160 = icmp ne i32 %159, 0
  br i1 %160, label %161, label %164

161:                                              ; preds = %156, %135
  %162 = load i64, ptr %19, align 8, !tbaa !4
  %163 = sub nsw i64 %162, 3600
  store i64 %163, ptr %19, align 8, !tbaa !4
  br label %164

164:                                              ; preds = %161, %156, %153
  %165 = load i64, ptr %19, align 8, !tbaa !4
  store i64 %165, ptr %9, align 8
  store i32 1, ptr %23, align 4
  br label %166

166:                                              ; preds = %164, %97
  call void @llvm.lifetime.end.p0(i64 56, ptr %22) #7
  call void @llvm.lifetime.end.p0(i64 8, ptr %21) #7
  call void @llvm.lifetime.end.p0(i64 4, ptr %20) #7
  call void @llvm.lifetime.end.p0(i64 8, ptr %19) #7
  call void @llvm.lifetime.end.p0(i64 12, ptr %18) #7
  %167 = load i64, ptr %9, align 8
  ret i64 %167
}