; Function Attrs: nounwind uwtable
define internal fastcc i64 @Convert(i64 noundef %0, i64 noundef %1, i64 noundef %2, i64 noundef %3, i64 noundef %4, i64 noundef %5, i64 noundef %6, i32 noundef %7) unnamed_addr #0 {
  %9 = alloca [12 x i8], align 1
  %10 = alloca i64, align 8
  %11 = alloca %struct.tm, align 8
  call void @llvm.lifetime.start.p0(i64 12, ptr nonnull %9) #7
  call void @llvm.memcpy.p0.p0.i64(ptr noundef nonnull align 1 dereferenceable(12) %9, ptr noundef nonnull align 1 dereferenceable(12) @__const.Convert.DaysInMonth, i64 12, i1 false)
  call void @llvm.lifetime.start.p0(i64 8, ptr nonnull %10) #7
  call void @llvm.lifetime.start.p0(i64 56, ptr nonnull %11) #7
  %12 = icmp slt i64 %2, 69
  %13 = add nsw i64 %2, 2000
  %14 = icmp samesign ult i64 %2, 100
  %15 = add nuw nsw i64 %2, 1900
  %spec.select = select i1 %14, i64 %15, i64 %2
  %.056 = select i1 %12, i64 %13, i64 %spec.select
  %16 = and i64 %.056, 3
  %17 = icmp eq i64 %16, 0
  br i1 %17, label %18, label %24

18:                                               ; preds = %8
  %19 = srem i64 %.056, 100
  %.not = icmp eq i64 %19, 0
  br i1 %.not, label %20, label %24

20:                                               ; preds = %18
  %21 = srem i64 %.056, 400
  %22 = icmp eq i64 %21, 0
  %23 = select i1 %22, i8 29, i8 28
  br label %24

24:                                               ; preds = %18, %20, %8
  %25 = phi i8 [ 28, %8 ], [ 29, %18 ], [ %23, %20 ]
  %26 = getelementptr inbounds nuw i8, ptr %9, i64 1
  store i8 %25, ptr %26, align 1, !tbaa !22
  %27 = add i64 %.056, -2038
  %or.cond = icmp ult i64 %27, -68
  %28 = add i64 %0, -13
  %29 = icmp ult i64 %28, -12
  %or.cond5 = or i1 %29, %or.cond
  %30 = icmp slt i64 %1, 1
  %or.cond7 = or i1 %30, %or.cond5
  br i1 %or.cond7, label %69, label %31

31:                                               ; preds = %24
  %32 = add nsw i64 %0, -1
  %33 = getelementptr inbounds nuw [12 x i8], ptr %9, i64 0, i64 %32
  %34 = load i8, ptr %33, align 1, !tbaa !22
  %35 = sext i8 %34 to i64
  %36 = icmp sgt i64 %1, %35
  %37 = icmp ugt i64 %3, 23
  %or.cond11 = or i1 %37, %36
  %38 = icmp ugt i64 %4, 59
  %or.cond15 = or i1 %38, %or.cond11
  %39 = icmp ugt i64 %5, 59
  %or.cond19 = or i1 %39, %or.cond15
  br i1 %or.cond19, label %69, label %40

40:                                               ; preds = %31
  %41 = add nsw i64 %1, -1
  %.not71 = icmp eq i64 %32, 0
  br i1 %.not71, label %.preheader, label %.lr.ph

.preheader:                                       ; preds = %.lr.ph, %40
  %.lcssa = phi i64 [ %41, %40 ], [ %47, %.lr.ph ]
  %42 = icmp sgt i64 %.056, 1970
  br i1 %42, label %.lr.ph69, label %._crit_edge

.lr.ph:                                           ; preds = %40, %.lr.ph
  %indvars.iv = phi i64 [ %indvars.iv.next, %.lr.ph ], [ 0, %40 ]
  %43 = phi i64 [ %47, %.lr.ph ], [ %41, %40 ]
  %44 = getelementptr inbounds nuw [12 x i8], ptr %9, i64 0, i64 %indvars.iv
  %45 = load i8, ptr %44, align 1, !tbaa !22
  %46 = sext i8 %45 to i64
  %47 = add nsw i64 %43, %46
  %indvars.iv.next = add nuw nsw i64 %indvars.iv, 1
  %exitcond.not = icmp eq i64 %indvars.iv.next, %32
  br i1 %exitcond.not, label %.preheader, label %.lr.ph, !llvm.loop !51

.lr.ph69:                                         ; preds = %.preheader, %.lr.ph69
  %indvars.iv75 = phi i64 [ %indvars.iv.next76, %.lr.ph69 ], [ 1970, %.preheader ]
  %48 = phi i64 [ %52, %.lr.ph69 ], [ %.lcssa, %.preheader ]
  %49 = and i64 %indvars.iv75, 3
  %50 = icmp eq i64 %49, 0
  %51 = select i1 %50, i64 366, i64 365
  %52 = add nsw i64 %48, %51
  %indvars.iv.next76 = add nuw nsw i64 %indvars.iv75, 1
  %exitcond78.not = icmp eq i64 %indvars.iv.next76, %.056
  br i1 %exitcond78.not, label %._crit_edge, label %.lr.ph69, !llvm.loop !52

._crit_edge:                                      ; preds = %.lr.ph69, %.preheader
  %.lcssa67 = phi i64 [ %.lcssa, %.preheader ], [ %52, %.lr.ph69 ]
  %53 = mul nsw i64 %.lcssa67, 86400
  %54 = mul nuw nsw i64 %3, 3600
  %55 = mul nuw nsw i64 %4, 60
  %56 = add nuw nsw i64 %55, %54
  %57 = add nuw nsw i64 %56, %5
  %58 = add i64 %57, %6
  %59 = add i64 %58, %53
  store i64 %59, ptr %10, align 8, !tbaa !4
  %60 = call ptr @localtime_r(ptr noundef nonnull %10, ptr noundef nonnull %11) #7
  switch i32 %7, label %67 [
    i32 0, label %64
    i32 2, label %61
  ]

61:                                               ; preds = %._crit_edge
  %62 = getelementptr inbounds nuw i8, ptr %60, i64 32
  %63 = load i32, ptr %62, align 8, !tbaa !17
  %.not64 = icmp eq i32 %63, 0
  br i1 %.not64, label %67, label %64

64:                                               ; preds = %._crit_edge, %61
  %65 = load i64, ptr %10, align 8, !tbaa !4
  %66 = add nsw i64 %65, -3600
  store i64 %66, ptr %10, align 8, !tbaa !4
  br label %67

67:                                               ; preds = %._crit_edge, %64, %61
  %68 = load i64, ptr %10, align 8, !tbaa !4
  br label %69

69:                                               ; preds = %24, %31, %67
  %.0 = phi i64 [ %68, %67 ], [ -1, %31 ], [ -1, %24 ]
  call void @llvm.lifetime.end.p0(i64 56, ptr nonnull %11) #7
  call void @llvm.lifetime.end.p0(i64 8, ptr nonnull %10) #7
  call void @llvm.lifetime.end.p0(i64 12, ptr nonnull %9) #7
  ret i64 %.0
}